     1                                 %line 1+1 shell.asm
     2                                 
     3                                 
     4                                 
     5                                 
     6                                 
     7                                 
     8                                 
     9                                 
    10                                 
    11                                 
    12                                 
    13                                 
    14                                 
    15                                 
    16                                 
    17                                 
    18                                 
    19                                 
    20                                 
    21                                 
    22                                 
    23                                 
    24                                 
    25                                 
    26                                 
    27                                 
    28                                 
    29                                 
    30                                 
    31                                 
    32                                 
    33                                 %line 73+1 shell.asm
    34                                 
    35                                 
    36                                 
    37                                 
    38                                 
    39                                 
    40                                 
    41                                 
    42                                 
    43                                 
    44                                 
    45                                 %line 112+1 shell.asm
    46                                 
    47                                 
    48                                 
    49                                 [section .data]
    50                                 
    51                                 
    52                                 
    53                                 
    54                                 TRUE equ 1
    55                                 FALSE equ 0
    56                                 
    57                                 EXIT_SUCCESS equ 0
    58                                 
    59                                 STDIN equ 0
    60                                 STDOUT equ 1
    61                                 STDERR equ 2
    62                                 
    63                                 SYS_read equ 0
    64                                 SYS_write equ 1
    65                                 SYS_open equ 2
    66                                 SYS_close equ 3
    67                                 SYS_fork equ 57
    68                                 SYS_exit equ 60
    69                                 SYS_creat equ 85
    70                                 SYS_time equ 201
    71                                 
    72                                 LF equ 10
    73                                 NULL equ 0
    74                                 ESC equ 27
    75                                 
    76                                 LIMIT equ 10000
    77                                 STR_LENGTH equ 10
    78                                 
    79                                 
    80                                 
    81                                 
    82 00000000 59040000D004000062-    lst dd 1113, 1232, 2146, 1376, 5120, 2356, 3164, 4565, 3155, 3157
    83 00000000 080000600500000014-
    84 00000000 0000340900005C0C00-
    85 00000000 00D5110000530C0000-
    86 00000000 550C0000           
    87 00000028 671A0000B6180000AB-     dd 6759, 6326, 171, 147, 5628, 7527, 7569, 1177, 6785, 3514
    88 00000028 00000093000000FC15-
    89 00000028 0000671D0000911D00-
    90 00000028 0099040000811A0000-
    91 00000028 BA0D0000           
    92 00000050 E9030000800000006D-     dd 1001, 128, 1133, 1105, 3327, 101, 115, 1108, 1, 2115
    93 00000050 04000051040000FF0C-
    94 00000050 000065000000730000-
    95 00000050 005404000001000000-
    96 00000050 43080000           
    97 00000078 CB040000CA04000009-     dd 1227, 1226, 5129, 117, 107, 105, 109, 9999, 1150, 3414
    98 00000078 140000750000006B00-
    99 00000078 0000690000006D0000-
   100 00000078 000F2700007E040000-
   101 00000078 560D0000           
   102 000000A0 53040000D7170000DD-     dd 1107, 6103, 1245, 6440, 1465, 2311, 254, 4528, 1913, 6722
   103 000000A0 04000028190000B905-
   104 000000A0 000007090000FE0000-
   105 000000A0 00B011000079070000-
   106 000000A0 421A0000           
   107 000000C8 7D0400004E08000027-     dd 1149, 2126, 5671, 4647, 4628, 327, 2390, 1177, 8275, 5614
   108 000000C8 160000271200001412-
   109 000000C8 000047010000560900-
   110 000000C8 009904000053200000-
   111 000000C8 EE150000           
   112 000000F0 310C00009F01000067-     dd 3121, 415, 615, 122, 7217, 1, 410, 1129, 812, 2134
   113 000000F0 0200007A000000311C-
   114 000000F0 0000010000009A0100-
   115 000000F0 00690400002C030000-
   116 000000F0 56080000           
   117 00000118 C5040000BA08000007-     dd 1221, 2234, 6151, 432, 114, 1629, 114, 522, 2413, 131
   118 00000118 180000B00100007200-
   119 00000118 00005D060000720000-
   120 00000118 000A0200006D090000-
   121 00000118 83000000           
   122 00000140 071600007E0000008A-     dd 5639, 126, 1162, 441, 127, 877, 199, 5679, 1101, 3414
   123 00000140 040000B90100007F00-
   124 00000140 00006D030000C70000-
   125 00000140 002F1600004D040000-
   126 00000140 560D0000           
   127 00000168 35080000850000006D-     dd 2101, 133, 1133, 2450, 4532, 8619, 115, 1618, 9999, 115
   128 00000168 04000092090000B411-
   129 00000168 0000AB210000730000-
   130 00000168 00520600000F270000-
   131 00000168 73000000           
   132 00000190 C30400002C0C000064-     dd 1219, 3116, 612, 217, 127, 6787, 4569, 679, 5675, 4314
   133 00000190 020000D90000007F00-
   134 00000190 0000831A0000D91100-
   135 00000190 00A70200002B160000-
   136 00000190 DA100000           
   137 000001B8 50040000A91A0000A0-     dd 1104, 6825, 1184, 2143, 1176, 134, 4626, 100, 4566, 2346
   138 000001B8 0400005F0800009804-
   139 000001B8 000086000000121200-
   140 000001B8 0064000000D6110000-
   141 000001B8 2A090000           
   142 000001E0 BE040000821A000051-     dd 1214, 6786, 1617, 183, 3512, 7881, 8320, 3467, 4559, 1190
   143 000001E0 060000B7000000B80D-
   144 000001E0 0000C91E0000802000-
   145 000001E0 008B0D0000CF110000-
   146 000001E0 A6040000           
   147 00000208 670000007000000001-     dd 103, 112, 1, 2186, 191, 186, 134, 1125, 5675, 3476
   148 00000208 0000008A080000BF00-
   149 00000208 0000BA000000860000-
   150 00000208 00650400002B160000-
   151 00000208 940D0000           
   152 00000230 64000000010000007A-     dd 100, 1, 1146, 100, 101, 1, 5616, 5662, 6328, 2342
   153 00000230 040000640000006500-
   154 00000230 000001000000F01500-
   155 00000230 001E160000B8180000-
   156 00000230 26090000           
   157 00000258 59080000410800006F-     dd 2137, 2113, 1647, 114, 115, 6571, 7624, 128, 113, 3112
   158 00000258 060000720000007300-
   159 00000258 0000AB190000C81D00-
   160 00000258 008000000071000000-
   161 00000258 280C0000           
   162 00000280 BC060000AC180000C1-     dd 1724, 6316, 1217, 2183, 4352, 121, 320, 4540, 5679, 1190
   163 00000280 040000870800000011-
   164 00000280 000079000000400100-
   165 00000280 00BC1100002F160000-
   166 00000280 A6040000           
   167 000002A8 A52300007400000062-     dd 9125, 116, 1122, 117, 127, 5677, 101, 3727, 6512, 3184
   168 000002A8 040000750000007F00-
   169 000002A8 00002D160000650000-
   170 000002A8 008F0E000070190000-
   171 000002A8 700C0000           
   172 000002D0 69070000E6180000A6-     dd 1897, 6374, 1190, 1667, 1224, 7123, 116, 8126, 6784, 2329
   173 000002D0 04000083060000C804-
   174 000002D0 0000D31B0000740000-
   175 000002D0 00BE1F0000801A0000-
   176 000002D0 19090000           
   177 000002F8 500400007C00000058-     dd 1104, 124, 1112, 143, 176, 7534, 2126, 6112, 156, 1103
   178 000002F8 0400008F000000B000-
   179 000002F8 00006E1D00004E0800-
   180 000002F8 00E01700009C000000-
   181 000002F8 4F040000           
   182 00000320 81040000AC0000007A-     dd 1153, 172, 1146, 2176, 170, 156, 164, 165, 155, 5156
   183 00000320 04000080080000AA00-
   184 00000320 00009C000000A40000-
   185 00000320 00A50000009B000000-
   186 00000320 24140000           
   187 00000348 7E030000B518000064-     dd 894, 6325, 100, 143, 276, 5634, 7526, 3413, 7686, 7563
   188 00000348 0000008F0000001401-
   189 00000348 000002160000661D00-
   190 00000348 00550D0000061E0000-
   191 00000348 8B1D0000           
   192 00000370 FF010000EF1800006D-     dd 511, 6383, 1133, 2150, 825, 5721, 5615, 4568, 7813, 1231
   193 00000370 040000660800003903-
   194 00000370 000059160000EF1500-
   195 00000370 00D8110000851E0000-
   196 00000370 CF040000           
   197 00000398 0F270000920000008A-     dd 9999, 146, 1162, 147, 157, 167, 169, 177, 175, 2144
   198 00000398 040000930000009D00-
   199 00000398 0000A7000000A90000-
   200 00000398 00B1000000AF000000-
   201 00000398 60080000           
   202 000003C0 97150000400500006A-     dd 5527, 1344, 1130, 2172, 224, 7525, 100, 1, 100, 1134
   203 000003C0 0400007C080000E000-
   204 000003C0 0000651D0000640000-
   205 000003C0 000100000064000000-
   206 000003C0 6E040000           
   207 000003E8 B50000009B00000079-     dd 181, 155, 1145, 132, 167, 185, 150, 149, 182, 1434
   208 000003E8 04000084000000A700-
   209 000003E8 0000B9000000960000-
   210 000003E8 0095000000B6000000-
   211 000003E8 9A050000           
   212 00000410 B5190000290E0000AB-     dd 6581, 3625, 6315, 1, 617, 7855, 6737, 129, 4512, 1
   213 00000410 180000010000006902-
   214 00000410 0000AF1E0000511A00-
   215 00000410 0081000000A0110000-
   216 00000410 01000000           
   217 00000438 B1000000A400000088-     dd 177, 164, 1160, 1172, 184, 175, 166, 6762, 158, 4572
   218 00000438 04000094040000B800-
   219 00000438 0000AF000000A60000-
   220 00000438 006A1A00009E000000-
   221 00000438 DC110000           
   222 00000460 A1190000030500006D-     dd 6561, 1283, 1133, 1150, 135, 5631, 8185, 178, 1197, 1185
   223 00000460 0400007E0400008700-
   224 00000460 0000FF150000F91F00-
   225 00000460 00B2000000AD040000-
   226 00000460 A1040000           
   227 00000488 11160000DE1800008A-     dd 5649, 6366, 1162, 1167, 167, 1177, 169, 1177, 175, 1169
   228 00000488 0400008F040000A700-
   229 00000488 000099040000A90000-
   230 00000488 0099040000AF000000-
   231 00000488 91040000           
   232                                 
   233 000004B0 2C010000               len dd 300
   234                                 
   235 000004B4 00000000               min dd 0
   236 000004B8 00000000               med dd 0
   237 000004BC 00000000               max dd 0
   238 000004C0 00000000               sum dd 0
   239 000004C4 00000000               avg dd 0
   240                                 
   241                                 
   242                                 
   243                                 
   244 000004C8 00000000               h dd 0
   245 000004CC 00000000               i dd 0
   246 000004D0 00000000               j dd 0
   247 000004D4 00000000               tmp dd 0
   248 000004D8 06000000               dSix dd 6
   249 000004DC 02000000               dTwo dd 2
   250 000004E0 03000000               dThree dd 3
   251                                 
   252                                 
   253                                 
   254                                 
   255 000004E4 0A00                   newLine db LF, NULL
   256                                 
   257 000004E6 0A2D2D2D2D2D2D2D2D-    hdr db LF, "---------------------------"
   258 000004E6 2D2D2D2D2D2D2D2D2D-
   259 000004E6 2D2D2D2D2D2D2D2D2D-
   260 000004E6 2D                 
   261 00000502 2D2D2D2D2D2D2D2D2D-     db "---------------------------"
   262 00000502 2D2D2D2D2D2D2D2D2D-
   263 00000502 2D2D2D2D2D2D2D2D2D 
   264 0000051D 0A1B5B316D43532032-     db LF, ESC, "[1m", "CS 218 - Assignment #7", ESC, "[0m"
   265 0000051D 3138202D2041737369-
   266 0000051D 676E6D656E74202337-
   267 0000051D 1B5B306D           
   268 0000053C 0A5368656C6C20536F-     db LF, "Shell Sort", LF, LF, NULL
   269 0000053C 72740A0A00         
   270                                 
   271 0000054A 4D696E696D756D3A20-    hdrMin db "Minimum:  ", NULL
   272 0000054A 2000               
   273 00000555 4D6178696D756D3A20-    hdrMax db "Maximum:  ", NULL
   274 00000555 2000               
   275 00000560 4D656469616E3A2020-    hdrMed db "Median:   ", NULL
   276 00000560 2000               
   277 0000056B 53756D3A2020202020-    hdrSum db "Sum:      ", NULL
   278 0000056B 2000               
   279 00000576 417665726167653A20-    hdrAve db "Average:  ", NULL
   280 00000576 2000               
   281                                 
   282                                 
   283                                 
   284                                 [section .bss]
   285                                 
   286 00000000 <gap>                  count resd LIMIT
   287 00009C40 <gap>                  tmpString resb STR_LENGTH
   288                                 
   289                                 
   290                                 
   291                                 [section .text]
   292                                 [global _start]
   293                                 _start:
   294                                 
   295                                 
   296                                 
   297 00000000 B801000000              mov eax, 1
   298 00000005 890425[00000000]        mov dword[h], eax
   299                                  whileLoop1:
   300 0000000C 8B0425[00000000]        mov eax, dword[dThree]
   301 00000013 F72425[00000000]        mul dword[h]
   302 0000001A FFC0                    inc eax
   303 0000001C 3B0425[00000000]        cmp eax, dword[len]
   304 00000023 7D07                    jge exitWhileLoop1
   305 00000025 890425[00000000]        mov dword[h], eax
   306 0000002C EBDC                    jmp whileLoop1
   307                                  exitWhileLoop1:
   308                                 
   309                                  whileLoop2:
   310 0000002E 8B0C25[00000000]        mov ecx, dword[h]
   311 00000035 83F900                  cmp ecx, 0
   312 00000038 0F8EB8000000            jle exitWhileLoop2
   313 0000003E FFC9                    dec ecx
   314 00000040 890C25[00000000]        mov dword[i], ecx
   315                                  forLoop1:
   316 00000047 3B0C25[00000000]        cmp ecx, dword[len]
   317 0000004E 0F8D83000000            jge exitForLoop1
   318 00000054 678B048D[00000000]      mov eax, dword[lst+ecx*4]
   319 0000005C 890425[00000000]        mov dword[tmp], eax
   320 00000063 890C25[00000000]        mov dword[j], ecx
   321 0000006A 8B3C25[00000000]        mov edi, dword[j]
   322                                  forLoop2:
   323 00000071 8B3C25[00000000]        mov edi, dword[j]
   324 00000078 3B3C25[00000000]        cmp edi, dword[h]
   325 0000007F 7C3B                    jl exitForLoop2
   326 00000081 89FE                    mov esi, edi
   327 00000083 2B3425[00000000]        sub esi, dword[h]
   328 0000008A 678B34B5[00000000]      mov esi, dword[lst+esi*4]
   329 00000092 3B3425[00000000]        cmp esi, dword[tmp]
   330 00000099 7E21                    jle exitForLoop2
   331 0000009B 448B0C25[00000000]      mov r9d, dword[j]
   332 000000A3 674289348D[00000000]      mov dword[lst+r9d*4], esi
   333 000000AC 442B0C25[00000000]      sub r9d, dword[h]
   334 000000B4 44890C25[00000000]      mov dword[j], r9d
   335 000000BC EBB1                    jmp forLoop2
   336                                  exitForLoop2:
   337 000000BE 8B3425[00000000]        mov esi, dword[j]
   338 000000C5 448B0C25[00000000]      mov r9d, dword[tmp]
   339 000000CD 6744890CB5[00000000]      mov dword[lst+esi*4], r9d
   340 000000D6 FFC1                    inc ecx
   341 000000D8 E965FFFFFF              jmp forLoop1
   342                                  exitForLoop1:
   343 000000DD 8B0C25[00000000]        mov ecx, dword[h]
   344 000000E4 89C8                    mov eax, ecx
   345 000000E6 99                      cdq
   346 000000E7 F73C25[00000000]        idiv dword[dThree]
   347 000000EE 89C1                    mov ecx, eax
   348 000000F0 890C25[00000000]        mov dword[h], ecx
   349 000000F7 E92DFFFFFF              jmp whileLoop2
   350                                  exitWhileLoop2
   351                                 
   352                                 
   353                                 
   354 000000FC 50                      push rax
   355                                 %line 286+0 shell.asm
   356 000000FD 57                      push rdi
   357 000000FE 56                      push rsi
   358 000000FF 52                      push rdx
   359 00000100 51                      push rcx
   360                                 
   361 00000101 48C7C200000000          mov rdx, 0
   362 00000108 48C7C7[00000000]        mov rdi, hdr
   363                                 ..@4.countLoop:
   364 0000010F 803F00                  cmp byte [rdi], NULL
   365 00000112 7406                    je ..@4.countLoopDone
   366 00000114 48FFC7                  inc rdi
   367 00000117 48FFC2                  inc rdx
   368 0000011A EBF1                    jmp ..@4.countLoop
   369                                 ..@4.countLoopDone:
   370                                 
   371 0000011C 48C7C001000000          mov rax, SYS_write
   372 00000123 48C7C701000000          mov rdi, STDOUT
   373 0000012A 48C7C6[00000000]        mov rsi, hdr
   374 00000131 0F05                    syscall
   375                                 
   376 00000133 59                      pop rcx
   377 00000134 5A                      pop rdx
   378 00000135 5E                      pop rsi
   379 00000136 5F                      pop rdi
   380 00000137 58                      pop rax
   381                                 %line 287+1 shell.asm
   382                                 
   383 00000138 50                      push rax
   384                                 %line 288+0 shell.asm
   385 00000139 57                      push rdi
   386 0000013A 56                      push rsi
   387 0000013B 52                      push rdx
   388 0000013C 51                      push rcx
   389                                 
   390 0000013D 48C7C200000000          mov rdx, 0
   391 00000144 48C7C7[00000000]        mov rdi, hdrMin
   392                                 ..@5.countLoop:
   393 0000014B 803F00                  cmp byte [rdi], NULL
   394 0000014E 7406                    je ..@5.countLoopDone
   395 00000150 48FFC7                  inc rdi
   396 00000153 48FFC2                  inc rdx
   397 00000156 EBF1                    jmp ..@5.countLoop
   398                                 ..@5.countLoopDone:
   399                                 
   400 00000158 48C7C001000000          mov rax, SYS_write
   401 0000015F 48C7C701000000          mov rdi, STDOUT
   402 00000166 48C7C6[00000000]        mov rsi, hdrMin
   403 0000016D 0F05                    syscall
   404                                 
   405 0000016F 59                      pop rcx
   406 00000170 5A                      pop rdx
   407 00000171 5E                      pop rsi
   408 00000172 5F                      pop rdi
   409 00000173 58                      pop rax
   410                                 %line 289+1 shell.asm
   411 00000174 52                      push rdx
   412                                 %line 289+0 shell.asm
   413 00000175 50                      push rax
   414 00000176 51                      push rcx
   415 00000177 56                      push rsi
   416 00000178 57                      push rdi
   417 00000179 4151                    push r9
   418 0000017B 4152                    push r10
   419                                 
   420 0000017D 8B0425[00000000]        mov eax, dword[min]
   421 00000184 48C7C606000000          mov rsi, 6
   422 0000018B 49C7C230000000          mov r10, 0x30
   423 00000192 48C7C100000000          mov rcx, 0
   424 00000199 49C7C1[00000000]        mov r9, tmpString
   425                                  ..@6.cnt:
   426 000001A0 BA00000000              mov edx, 0
   427 000001A5 F7F6                    div esi
   428 000001A7 48FFC1                  inc rcx
   429 000001AA 83F800                  cmp eax, 0
   430 000001AD 75EF                    jne ..@6.cnt
   431 000001AF 8B0425[00000000]        mov eax, dword[min]
   432 000001B6 4901C9                  add r9, rcx
   433 000001B9 41C60100                mov byte[r9], NULL
   434 000001BD 49FFC9                  dec r9
   435                                  ..@6.cloop:
   436 000001C0 BA00000000              mov edx, 0
   437 000001C5 F7F6                    div esi
   438 000001C7 4401D2                  add edx, r10d
   439 000001CA 418811                  mov byte[r9], dl
   440 000001CD 49FFC9                  dec r9
   441 000001D0 83F800                  cmp eax, 0
   442 000001D3 75E9                    jne ..@6.cloop
   443                                 
   444 000001D5 415A                    pop r10
   445 000001D7 4159                    pop r9
   446 000001D9 5F                      pop rdi
   447 000001DA 5E                      pop rsi
   448 000001DB 59                      pop rcx
   449 000001DC 58                      pop rax
   450 000001DD 5A                      pop rdx
   451                                 %line 290+1 shell.asm
   452 000001DE 50                      push rax
   453                                 %line 290+0 shell.asm
   454 000001DF 57                      push rdi
   455 000001E0 56                      push rsi
   456 000001E1 52                      push rdx
   457 000001E2 51                      push rcx
   458                                 
   459 000001E3 48C7C200000000          mov rdx, 0
   460 000001EA 48C7C7[00000000]        mov rdi, tmpString
   461                                 ..@7.countLoop:
   462 000001F1 803F00                  cmp byte [rdi], NULL
   463 000001F4 7406                    je ..@7.countLoopDone
   464 000001F6 48FFC7                  inc rdi
   465 000001F9 48FFC2                  inc rdx
   466 000001FC EBF1                    jmp ..@7.countLoop
   467                                 ..@7.countLoopDone:
   468                                 
   469 000001FE 48C7C001000000          mov rax, SYS_write
   470 00000205 48C7C701000000          mov rdi, STDOUT
   471 0000020C 48C7C6[00000000]        mov rsi, tmpString
   472 00000213 0F05                    syscall
   473                                 
   474 00000215 59                      pop rcx
   475 00000216 5A                      pop rdx
   476 00000217 5E                      pop rsi
   477 00000218 5F                      pop rdi
   478 00000219 58                      pop rax
   479                                 %line 291+1 shell.asm
   480 0000021A 50                      push rax
   481                                 %line 291+0 shell.asm
   482 0000021B 57                      push rdi
   483 0000021C 56                      push rsi
   484 0000021D 52                      push rdx
   485 0000021E 51                      push rcx
   486                                 
   487 0000021F 48C7C200000000          mov rdx, 0
   488 00000226 48C7C7[00000000]        mov rdi, newLine
   489                                 ..@8.countLoop:
   490 0000022D 803F00                  cmp byte [rdi], NULL
   491 00000230 7406                    je ..@8.countLoopDone
   492 00000232 48FFC7                  inc rdi
   493 00000235 48FFC2                  inc rdx
   494 00000238 EBF1                    jmp ..@8.countLoop
   495                                 ..@8.countLoopDone:
   496                                 
   497 0000023A 48C7C001000000          mov rax, SYS_write
   498 00000241 48C7C701000000          mov rdi, STDOUT
   499 00000248 48C7C6[00000000]        mov rsi, newLine
   500 0000024F 0F05                    syscall
   501                                 
   502 00000251 59                      pop rcx
   503 00000252 5A                      pop rdx
   504 00000253 5E                      pop rsi
   505 00000254 5F                      pop rdi
   506 00000255 58                      pop rax
   507                                 %line 292+1 shell.asm
   508                                 
   509 00000256 50                      push rax
   510                                 %line 293+0 shell.asm
   511 00000257 57                      push rdi
   512 00000258 56                      push rsi
   513 00000259 52                      push rdx
   514 0000025A 51                      push rcx
   515                                 
   516 0000025B 48C7C200000000          mov rdx, 0
   517 00000262 48C7C7[00000000]        mov rdi, hdrMax
   518                                 ..@9.countLoop:
   519 00000269 803F00                  cmp byte [rdi], NULL
   520 0000026C 7406                    je ..@9.countLoopDone
   521 0000026E 48FFC7                  inc rdi
   522 00000271 48FFC2                  inc rdx
   523 00000274 EBF1                    jmp ..@9.countLoop
   524                                 ..@9.countLoopDone:
   525                                 
   526 00000276 48C7C001000000          mov rax, SYS_write
   527 0000027D 48C7C701000000          mov rdi, STDOUT
   528 00000284 48C7C6[00000000]        mov rsi, hdrMax
   529 0000028B 0F05                    syscall
   530                                 
   531 0000028D 59                      pop rcx
   532 0000028E 5A                      pop rdx
   533 0000028F 5E                      pop rsi
   534 00000290 5F                      pop rdi
   535 00000291 58                      pop rax
   536                                 %line 294+1 shell.asm
   537 00000292 52                      push rdx
   538                                 %line 294+0 shell.asm
   539 00000293 50                      push rax
   540 00000294 51                      push rcx
   541 00000295 56                      push rsi
   542 00000296 57                      push rdi
   543 00000297 4151                    push r9
   544 00000299 4152                    push r10
   545                                 
   546 0000029B 8B0425[00000000]        mov eax, dword[max]
   547 000002A2 48C7C606000000          mov rsi, 6
   548 000002A9 49C7C230000000          mov r10, 0x30
   549 000002B0 48C7C100000000          mov rcx, 0
   550 000002B7 49C7C1[00000000]        mov r9, tmpString
   551                                  ..@10.cnt:
   552 000002BE BA00000000              mov edx, 0
   553 000002C3 F7F6                    div esi
   554 000002C5 48FFC1                  inc rcx
   555 000002C8 83F800                  cmp eax, 0
   556 000002CB 75EF                    jne ..@10.cnt
   557 000002CD 8B0425[00000000]        mov eax, dword[max]
   558 000002D4 4901C9                  add r9, rcx
   559 000002D7 41C60100                mov byte[r9], NULL
   560 000002DB 49FFC9                  dec r9
   561                                  ..@10.cloop:
   562 000002DE BA00000000              mov edx, 0
   563 000002E3 F7F6                    div esi
   564 000002E5 4401D2                  add edx, r10d
   565 000002E8 418811                  mov byte[r9], dl
   566 000002EB 49FFC9                  dec r9
   567 000002EE 83F800                  cmp eax, 0
   568 000002F1 75E9                    jne ..@10.cloop
   569                                 
   570 000002F3 415A                    pop r10
   571 000002F5 4159                    pop r9
   572 000002F7 5F                      pop rdi
   573 000002F8 5E                      pop rsi
   574 000002F9 59                      pop rcx
   575 000002FA 58                      pop rax
   576 000002FB 5A                      pop rdx
   577                                 %line 295+1 shell.asm
   578 000002FC 50                      push rax
   579                                 %line 295+0 shell.asm
   580 000002FD 57                      push rdi
   581 000002FE 56                      push rsi
   582 000002FF 52                      push rdx
   583 00000300 51                      push rcx
   584                                 
   585 00000301 48C7C200000000          mov rdx, 0
   586 00000308 48C7C7[00000000]        mov rdi, tmpString
   587                                 ..@11.countLoop:
   588 0000030F 803F00                  cmp byte [rdi], NULL
   589 00000312 7406                    je ..@11.countLoopDone
   590 00000314 48FFC7                  inc rdi
   591 00000317 48FFC2                  inc rdx
   592 0000031A EBF1                    jmp ..@11.countLoop
   593                                 ..@11.countLoopDone:
   594                                 
   595 0000031C 48C7C001000000          mov rax, SYS_write
   596 00000323 48C7C701000000          mov rdi, STDOUT
   597 0000032A 48C7C6[00000000]        mov rsi, tmpString
   598 00000331 0F05                    syscall
   599                                 
   600 00000333 59                      pop rcx
   601 00000334 5A                      pop rdx
   602 00000335 5E                      pop rsi
   603 00000336 5F                      pop rdi
   604 00000337 58                      pop rax
   605                                 %line 296+1 shell.asm
   606 00000338 50                      push rax
   607                                 %line 296+0 shell.asm
   608 00000339 57                      push rdi
   609 0000033A 56                      push rsi
   610 0000033B 52                      push rdx
   611 0000033C 51                      push rcx
   612                                 
   613 0000033D 48C7C200000000          mov rdx, 0
   614 00000344 48C7C7[00000000]        mov rdi, newLine
   615                                 ..@12.countLoop:
   616 0000034B 803F00                  cmp byte [rdi], NULL
   617 0000034E 7406                    je ..@12.countLoopDone
   618 00000350 48FFC7                  inc rdi
   619 00000353 48FFC2                  inc rdx
   620 00000356 EBF1                    jmp ..@12.countLoop
   621                                 ..@12.countLoopDone:
   622                                 
   623 00000358 48C7C001000000          mov rax, SYS_write
   624 0000035F 48C7C701000000          mov rdi, STDOUT
   625 00000366 48C7C6[00000000]        mov rsi, newLine
   626 0000036D 0F05                    syscall
   627                                 
   628 0000036F 59                      pop rcx
   629 00000370 5A                      pop rdx
   630 00000371 5E                      pop rsi
   631 00000372 5F                      pop rdi
   632 00000373 58                      pop rax
   633                                 %line 297+1 shell.asm
   634                                 
   635 00000374 50                      push rax
   636                                 %line 298+0 shell.asm
   637 00000375 57                      push rdi
   638 00000376 56                      push rsi
   639 00000377 52                      push rdx
   640 00000378 51                      push rcx
   641                                 
   642 00000379 48C7C200000000          mov rdx, 0
   643 00000380 48C7C7[00000000]        mov rdi, hdrMed
   644                                 ..@13.countLoop:
   645 00000387 803F00                  cmp byte [rdi], NULL
   646 0000038A 7406                    je ..@13.countLoopDone
   647 0000038C 48FFC7                  inc rdi
   648 0000038F 48FFC2                  inc rdx
   649 00000392 EBF1                    jmp ..@13.countLoop
   650                                 ..@13.countLoopDone:
   651                                 
   652 00000394 48C7C001000000          mov rax, SYS_write
   653 0000039B 48C7C701000000          mov rdi, STDOUT
   654 000003A2 48C7C6[00000000]        mov rsi, hdrMed
   655 000003A9 0F05                    syscall
   656                                 
   657 000003AB 59                      pop rcx
   658 000003AC 5A                      pop rdx
   659 000003AD 5E                      pop rsi
   660 000003AE 5F                      pop rdi
   661 000003AF 58                      pop rax
   662                                 %line 299+1 shell.asm
   663 000003B0 52                      push rdx
   664                                 %line 299+0 shell.asm
   665 000003B1 50                      push rax
   666 000003B2 51                      push rcx
   667 000003B3 56                      push rsi
   668 000003B4 57                      push rdi
   669 000003B5 4151                    push r9
   670 000003B7 4152                    push r10
   671                                 
   672 000003B9 8B0425[00000000]        mov eax, dword[med]
   673 000003C0 48C7C606000000          mov rsi, 6
   674 000003C7 49C7C230000000          mov r10, 0x30
   675 000003CE 48C7C100000000          mov rcx, 0
   676 000003D5 49C7C1[00000000]        mov r9, tmpString
   677                                  ..@14.cnt:
   678 000003DC BA00000000              mov edx, 0
   679 000003E1 F7F6                    div esi
   680 000003E3 48FFC1                  inc rcx
   681 000003E6 83F800                  cmp eax, 0
   682 000003E9 75EF                    jne ..@14.cnt
   683 000003EB 8B0425[00000000]        mov eax, dword[med]
   684 000003F2 4901C9                  add r9, rcx
   685 000003F5 41C60100                mov byte[r9], NULL
   686 000003F9 49FFC9                  dec r9
   687                                  ..@14.cloop:
   688 000003FC BA00000000              mov edx, 0
   689 00000401 F7F6                    div esi
   690 00000403 4401D2                  add edx, r10d
   691 00000406 418811                  mov byte[r9], dl
   692 00000409 49FFC9                  dec r9
   693 0000040C 83F800                  cmp eax, 0
   694 0000040F 75E9                    jne ..@14.cloop
   695                                 
   696 00000411 415A                    pop r10
   697 00000413 4159                    pop r9
   698 00000415 5F                      pop rdi
   699 00000416 5E                      pop rsi
   700 00000417 59                      pop rcx
   701 00000418 58                      pop rax
   702 00000419 5A                      pop rdx
   703                                 %line 300+1 shell.asm
   704 0000041A 50                      push rax
   705                                 %line 300+0 shell.asm
   706 0000041B 57                      push rdi
   707 0000041C 56                      push rsi
   708 0000041D 52                      push rdx
   709 0000041E 51                      push rcx
   710                                 
   711 0000041F 48C7C200000000          mov rdx, 0
   712 00000426 48C7C7[00000000]        mov rdi, tmpString
   713                                 ..@15.countLoop:
   714 0000042D 803F00                  cmp byte [rdi], NULL
   715 00000430 7406                    je ..@15.countLoopDone
   716 00000432 48FFC7                  inc rdi
   717 00000435 48FFC2                  inc rdx
   718 00000438 EBF1                    jmp ..@15.countLoop
   719                                 ..@15.countLoopDone:
   720                                 
   721 0000043A 48C7C001000000          mov rax, SYS_write
   722 00000441 48C7C701000000          mov rdi, STDOUT
   723 00000448 48C7C6[00000000]        mov rsi, tmpString
   724 0000044F 0F05                    syscall
   725                                 
   726 00000451 59                      pop rcx
   727 00000452 5A                      pop rdx
   728 00000453 5E                      pop rsi
   729 00000454 5F                      pop rdi
   730 00000455 58                      pop rax
   731                                 %line 301+1 shell.asm
   732 00000456 50                      push rax
   733                                 %line 301+0 shell.asm
   734 00000457 57                      push rdi
   735 00000458 56                      push rsi
   736 00000459 52                      push rdx
   737 0000045A 51                      push rcx
   738                                 
   739 0000045B 48C7C200000000          mov rdx, 0
   740 00000462 48C7C7[00000000]        mov rdi, newLine
   741                                 ..@16.countLoop:
   742 00000469 803F00                  cmp byte [rdi], NULL
   743 0000046C 7406                    je ..@16.countLoopDone
   744 0000046E 48FFC7                  inc rdi
   745 00000471 48FFC2                  inc rdx
   746 00000474 EBF1                    jmp ..@16.countLoop
   747                                 ..@16.countLoopDone:
   748                                 
   749 00000476 48C7C001000000          mov rax, SYS_write
   750 0000047D 48C7C701000000          mov rdi, STDOUT
   751 00000484 48C7C6[00000000]        mov rsi, newLine
   752 0000048B 0F05                    syscall
   753                                 
   754 0000048D 59                      pop rcx
   755 0000048E 5A                      pop rdx
   756 0000048F 5E                      pop rsi
   757 00000490 5F                      pop rdi
   758 00000491 58                      pop rax
   759                                 %line 302+1 shell.asm
   760                                 
   761 00000492 50                      push rax
   762                                 %line 303+0 shell.asm
   763 00000493 57                      push rdi
   764 00000494 56                      push rsi
   765 00000495 52                      push rdx
   766 00000496 51                      push rcx
   767                                 
   768 00000497 48C7C200000000          mov rdx, 0
   769 0000049E 48C7C7[00000000]        mov rdi, hdrSum
   770                                 ..@17.countLoop:
   771 000004A5 803F00                  cmp byte [rdi], NULL
   772 000004A8 7406                    je ..@17.countLoopDone
   773 000004AA 48FFC7                  inc rdi
   774 000004AD 48FFC2                  inc rdx
   775 000004B0 EBF1                    jmp ..@17.countLoop
   776                                 ..@17.countLoopDone:
   777                                 
   778 000004B2 48C7C001000000          mov rax, SYS_write
   779 000004B9 48C7C701000000          mov rdi, STDOUT
   780 000004C0 48C7C6[00000000]        mov rsi, hdrSum
   781 000004C7 0F05                    syscall
   782                                 
   783 000004C9 59                      pop rcx
   784 000004CA 5A                      pop rdx
   785 000004CB 5E                      pop rsi
   786 000004CC 5F                      pop rdi
   787 000004CD 58                      pop rax
   788                                 %line 304+1 shell.asm
   789 000004CE 52                      push rdx
   790                                 %line 304+0 shell.asm
   791 000004CF 50                      push rax
   792 000004D0 51                      push rcx
   793 000004D1 56                      push rsi
   794 000004D2 57                      push rdi
   795 000004D3 4151                    push r9
   796 000004D5 4152                    push r10
   797                                 
   798 000004D7 8B0425[00000000]        mov eax, dword[sum]
   799 000004DE 48C7C606000000          mov rsi, 6
   800 000004E5 49C7C230000000          mov r10, 0x30
   801 000004EC 48C7C100000000          mov rcx, 0
   802 000004F3 49C7C1[00000000]        mov r9, tmpString
   803                                  ..@18.cnt:
   804 000004FA BA00000000              mov edx, 0
   805 000004FF F7F6                    div esi
   806 00000501 48FFC1                  inc rcx
   807 00000504 83F800                  cmp eax, 0
   808 00000507 75EF                    jne ..@18.cnt
   809 00000509 8B0425[00000000]        mov eax, dword[sum]
   810 00000510 4901C9                  add r9, rcx
   811 00000513 41C60100                mov byte[r9], NULL
   812 00000517 49FFC9                  dec r9
   813                                  ..@18.cloop:
   814 0000051A BA00000000              mov edx, 0
   815 0000051F F7F6                    div esi
   816 00000521 4401D2                  add edx, r10d
   817 00000524 418811                  mov byte[r9], dl
   818 00000527 49FFC9                  dec r9
   819 0000052A 83F800                  cmp eax, 0
   820 0000052D 75E9                    jne ..@18.cloop
   821                                 
   822 0000052F 415A                    pop r10
   823 00000531 4159                    pop r9
   824 00000533 5F                      pop rdi
   825 00000534 5E                      pop rsi
   826 00000535 59                      pop rcx
   827 00000536 58                      pop rax
   828 00000537 5A                      pop rdx
   829                                 %line 305+1 shell.asm
   830 00000538 50                      push rax
   831                                 %line 305+0 shell.asm
   832 00000539 57                      push rdi
   833 0000053A 56                      push rsi
   834 0000053B 52                      push rdx
   835 0000053C 51                      push rcx
   836                                 
   837 0000053D 48C7C200000000          mov rdx, 0
   838 00000544 48C7C7[00000000]        mov rdi, tmpString
   839                                 ..@19.countLoop:
   840 0000054B 803F00                  cmp byte [rdi], NULL
   841 0000054E 7406                    je ..@19.countLoopDone
   842 00000550 48FFC7                  inc rdi
   843 00000553 48FFC2                  inc rdx
   844 00000556 EBF1                    jmp ..@19.countLoop
   845                                 ..@19.countLoopDone:
   846                                 
   847 00000558 48C7C001000000          mov rax, SYS_write
   848 0000055F 48C7C701000000          mov rdi, STDOUT
   849 00000566 48C7C6[00000000]        mov rsi, tmpString
   850 0000056D 0F05                    syscall
   851                                 
   852 0000056F 59                      pop rcx
   853 00000570 5A                      pop rdx
   854 00000571 5E                      pop rsi
   855 00000572 5F                      pop rdi
   856 00000573 58                      pop rax
   857                                 %line 306+1 shell.asm
   858 00000574 50                      push rax
   859                                 %line 306+0 shell.asm
   860 00000575 57                      push rdi
   861 00000576 56                      push rsi
   862 00000577 52                      push rdx
   863 00000578 51                      push rcx
   864                                 
   865 00000579 48C7C200000000          mov rdx, 0
   866 00000580 48C7C7[00000000]        mov rdi, newLine
   867                                 ..@20.countLoop:
   868 00000587 803F00                  cmp byte [rdi], NULL
   869 0000058A 7406                    je ..@20.countLoopDone
   870 0000058C 48FFC7                  inc rdi
   871 0000058F 48FFC2                  inc rdx
   872 00000592 EBF1                    jmp ..@20.countLoop
   873                                 ..@20.countLoopDone:
   874                                 
   875 00000594 48C7C001000000          mov rax, SYS_write
   876 0000059B 48C7C701000000          mov rdi, STDOUT
   877 000005A2 48C7C6[00000000]        mov rsi, newLine
   878 000005A9 0F05                    syscall
   879                                 
   880 000005AB 59                      pop rcx
   881 000005AC 5A                      pop rdx
   882 000005AD 5E                      pop rsi
   883 000005AE 5F                      pop rdi
   884 000005AF 58                      pop rax
   885                                 %line 307+1 shell.asm
   886                                 
   887 000005B0 50                      push rax
   888                                 %line 308+0 shell.asm
   889 000005B1 57                      push rdi
   890 000005B2 56                      push rsi
   891 000005B3 52                      push rdx
   892 000005B4 51                      push rcx
   893                                 
   894 000005B5 48C7C200000000          mov rdx, 0
   895 000005BC 48C7C7[00000000]        mov rdi, hdrAve
   896                                 ..@21.countLoop:
   897 000005C3 803F00                  cmp byte [rdi], NULL
   898 000005C6 7406                    je ..@21.countLoopDone
   899 000005C8 48FFC7                  inc rdi
   900 000005CB 48FFC2                  inc rdx
   901 000005CE EBF1                    jmp ..@21.countLoop
   902                                 ..@21.countLoopDone:
   903                                 
   904 000005D0 48C7C001000000          mov rax, SYS_write
   905 000005D7 48C7C701000000          mov rdi, STDOUT
   906 000005DE 48C7C6[00000000]        mov rsi, hdrAve
   907 000005E5 0F05                    syscall
   908                                 
   909 000005E7 59                      pop rcx
   910 000005E8 5A                      pop rdx
   911 000005E9 5E                      pop rsi
   912 000005EA 5F                      pop rdi
   913 000005EB 58                      pop rax
   914                                 %line 309+1 shell.asm
   915 000005EC 52                      push rdx
   916                                 %line 309+0 shell.asm
   917 000005ED 50                      push rax
   918 000005EE 51                      push rcx
   919 000005EF 56                      push rsi
   920 000005F0 57                      push rdi
   921 000005F1 4151                    push r9
   922 000005F3 4152                    push r10
   923                                 
   924 000005F5 8B0425[00000000]        mov eax, dword[avg]
   925 000005FC 48C7C606000000          mov rsi, 6
   926 00000603 49C7C230000000          mov r10, 0x30
   927 0000060A 48C7C100000000          mov rcx, 0
   928 00000611 49C7C1[00000000]        mov r9, tmpString
   929                                  ..@22.cnt:
   930 00000618 BA00000000              mov edx, 0
   931 0000061D F7F6                    div esi
   932 0000061F 48FFC1                  inc rcx
   933 00000622 83F800                  cmp eax, 0
   934 00000625 75EF                    jne ..@22.cnt
   935 00000627 8B0425[00000000]        mov eax, dword[avg]
   936 0000062E 4901C9                  add r9, rcx
   937 00000631 41C60100                mov byte[r9], NULL
   938 00000635 49FFC9                  dec r9
   939                                  ..@22.cloop:
   940 00000638 BA00000000              mov edx, 0
   941 0000063D F7F6                    div esi
   942 0000063F 4401D2                  add edx, r10d
   943 00000642 418811                  mov byte[r9], dl
   944 00000645 49FFC9                  dec r9
   945 00000648 83F800                  cmp eax, 0
   946 0000064B 75E9                    jne ..@22.cloop
   947                                 
   948 0000064D 415A                    pop r10
   949 0000064F 4159                    pop r9
   950 00000651 5F                      pop rdi
   951 00000652 5E                      pop rsi
   952 00000653 59                      pop rcx
   953 00000654 58                      pop rax
   954 00000655 5A                      pop rdx
   955                                 %line 310+1 shell.asm
   956 00000656 50                      push rax
   957                                 %line 310+0 shell.asm
   958 00000657 57                      push rdi
   959 00000658 56                      push rsi
   960 00000659 52                      push rdx
   961 0000065A 51                      push rcx
   962                                 
   963 0000065B 48C7C200000000          mov rdx, 0
   964 00000662 48C7C7[00000000]        mov rdi, tmpString
   965                                 ..@23.countLoop:
   966 00000669 803F00                  cmp byte [rdi], NULL
   967 0000066C 7406                    je ..@23.countLoopDone
   968 0000066E 48FFC7                  inc rdi
   969 00000671 48FFC2                  inc rdx
   970 00000674 EBF1                    jmp ..@23.countLoop
   971                                 ..@23.countLoopDone:
   972                                 
   973 00000676 48C7C001000000          mov rax, SYS_write
   974 0000067D 48C7C701000000          mov rdi, STDOUT
   975 00000684 48C7C6[00000000]        mov rsi, tmpString
   976 0000068B 0F05                    syscall
   977                                 
   978 0000068D 59                      pop rcx
   979 0000068E 5A                      pop rdx
   980 0000068F 5E                      pop rsi
   981 00000690 5F                      pop rdi
   982 00000691 58                      pop rax
   983                                 %line 311+1 shell.asm
   984 00000692 50                      push rax
   985                                 %line 311+0 shell.asm
   986 00000693 57                      push rdi
   987 00000694 56                      push rsi
   988 00000695 52                      push rdx
   989 00000696 51                      push rcx
   990                                 
   991 00000697 48C7C200000000          mov rdx, 0
   992 0000069E 48C7C7[00000000]        mov rdi, newLine
   993                                 ..@24.countLoop:
   994 000006A5 803F00                  cmp byte [rdi], NULL
   995 000006A8 7406                    je ..@24.countLoopDone
   996 000006AA 48FFC7                  inc rdi
   997 000006AD 48FFC2                  inc rdx
   998 000006B0 EBF1                    jmp ..@24.countLoop
   999                                 ..@24.countLoopDone:
  1000                                 
  1001 000006B2 48C7C001000000          mov rax, SYS_write
  1002 000006B9 48C7C701000000          mov rdi, STDOUT
  1003 000006C0 48C7C6[00000000]        mov rsi, newLine
  1004 000006C7 0F05                    syscall
  1005                                 
  1006 000006C9 59                      pop rcx
  1007 000006CA 5A                      pop rdx
  1008 000006CB 5E                      pop rsi
  1009 000006CC 5F                      pop rdi
  1010 000006CD 58                      pop rax
  1011                                 %line 312+1 shell.asm
  1012 000006CE 50                      push rax
  1013                                 %line 312+0 shell.asm
  1014 000006CF 57                      push rdi
  1015 000006D0 56                      push rsi
  1016 000006D1 52                      push rdx
  1017 000006D2 51                      push rcx
  1018                                 
  1019 000006D3 48C7C200000000          mov rdx, 0
  1020 000006DA 48C7C7[00000000]        mov rdi, newLine
  1021                                 ..@25.countLoop:
  1022 000006E1 803F00                  cmp byte [rdi], NULL
  1023 000006E4 7406                    je ..@25.countLoopDone
  1024 000006E6 48FFC7                  inc rdi
  1025 000006E9 48FFC2                  inc rdx
  1026 000006EC EBF1                    jmp ..@25.countLoop
  1027                                 ..@25.countLoopDone:
  1028                                 
  1029 000006EE 48C7C001000000          mov rax, SYS_write
  1030 000006F5 48C7C701000000          mov rdi, STDOUT
  1031 000006FC 48C7C6[00000000]        mov rsi, newLine
  1032 00000703 0F05                    syscall
  1033                                 
  1034 00000705 59                      pop rcx
  1035 00000706 5A                      pop rdx
  1036 00000707 5E                      pop rsi
  1037 00000708 5F                      pop rdi
  1038 00000709 58                      pop rax
  1039                                 %line 313+1 shell.asm
  1040                                 
  1041                                 
  1042                                 
  1043                                 
  1044                                 last:
  1045 0000070A 48C7C03C000000          mov rax, SYS_exit
  1046 00000711 48C7C300000000          mov rbx, EXIT_SUCCESS
  1047 00000718 0F05                    syscall
  1048                                 
  1049                                 
